; Function Attrs: mustprogress uwtable
define void @_ZNK32pxrInternal_v0_24__pxrReserved__21UsdImagingPrimAdapter26_GetMaterialRenderContextsEv(ptr dead_on_unwind noalias writable sret(%"class.std::vector") align 8 %0, ptr nocapture noundef nonnull readonly align 8 dereferenceable(32) %1) local_unnamed_addr #0 align 2 {
  %3 = getelementptr inbounds nuw i8, ptr %1, i64 24
  %4 = load ptr, ptr %3, align 8
  %5 = getelementptr inbounds nuw i8, ptr %4, i64 8
  %6 = load ptr, ptr %5, align 8
  %7 = tail call noundef ptr @_ZNK32pxrInternal_v0_24__pxrReserved__13HdRenderIndex17GetRenderDelegateEv(ptr noundef nonnull align 8 dereferenceable(4080) %6)
  %8 = load ptr, ptr %7, align 8
  %9 = getelementptr inbounds i8, ptr %8, i64 296
  %10 = load ptr, ptr %9, align 8
  tail call void %10(ptr dead_on_unwind writable sret(%"class.std::vector") align 8 %0, ptr noundef nonnull align 8 dereferenceable(104) %7)
  ret void
}